target datalayout = "e-m:e-p270:32:32-p271:32:32-p272:64:64-i64:64-i128:128-f80:128-n8:16:32:64-S128"
target triple = "x86_64-pc-linux-gnu"

@g_assert_poison = external global ptr, align 8
@.str.5 = private unnamed_addr constant [60 x i8] c"src/hotspot/share/gc/shenandoah/shenandoahDegeneratedGC.cpp\00", align 1
@.str.6 = private unnamed_addr constant [31 x i8] c"Pause Degenerated GC (<UNSET>)\00", align 1
@.str.7 = private unnamed_addr constant [40 x i8] c"Pause Degenerated GC (Outside of Cycle)\00", align 1
@.str.8 = private unnamed_addr constant [28 x i8] c"Pause Degenerated GC (Mark)\00", align 1
@.str.9 = private unnamed_addr constant [34 x i8] c"Pause Degenerated GC (Evacuation)\00", align 1
@.str.10 = private unnamed_addr constant [35 x i8] c"Pause Degenerated GC (Update Refs)\00", align 1
@.str.11 = private unnamed_addr constant [6 x i8] c"ERROR\00", align 1

; Function Attrs: mustprogress nounwind uwtable
define hidden noundef ptr @_ZNK17ShenandoahDegenGC19degen_event_messageEN12ShenandoahGC20ShenandoahDegenPointE(ptr noundef nonnull align 8 dereferenceable(13) %0, i32 noundef %1) #1 align 2 {
  %3 = alloca ptr, align 8
  %4 = alloca ptr, align 8
  %5 = alloca i32, align 4
  store ptr %0, ptr %4, align 8
  store i32 %1, ptr %5, align 4
  %6 = load i32, ptr %5, align 4
  switch i32 %6, label %12 [
    i32 0, label %7
    i32 1, label %8
    i32 2, label %9
    i32 3, label %10
    i32 4, label %11
  ]

7:                                                ; preds = %2
  store ptr @.str.6, ptr %3, align 8
  br label %16

8:                                                ; preds = %2
  store ptr @.str.7, ptr %3, align 8
  br label %16

9:                                                ; preds = %2
  store ptr @.str.8, ptr %3, align 8
  br label %16

10:                                               ; preds = %2
  store ptr @.str.9, ptr %3, align 8
  br label %16

11:                                               ; preds = %2
  store ptr @.str.10, ptr %3, align 8
  br label %16

12:                                               ; preds = %2
  br label %13

13:                                               ; preds = %12
  %14 = load ptr, ptr @g_assert_poison, align 8
  store i8 88, ptr %14, align 1
  call void @_Z28report_should_not_reach_herePKci(ptr noundef @.str.5, i32 noundef 370) #9
  unreachable

15:                                               ; No predecessors!
  store ptr @.str.11, ptr %3, align 8
  br label %16

16:                                               ; preds = %15, %11, %10, %9, %8, %7
  %17 = load ptr, ptr %3, align 8
  ret ptr %17
}