; Function Attrs: mustprogress nounwind uwtable
define hidden noundef nonnull ptr @_ZNK17ShenandoahDegenGC19degen_event_messageEN12ShenandoahGC20ShenandoahDegenPointE(ptr nocapture noundef nonnull readnone align 8 dereferenceable(13) %0, i32 noundef %1) local_unnamed_addr #1 align 2 {
  %3 = icmp ult i32 %1, 5
  br i1 %3, label %switch.lookup, label %4

4:                                                ; preds = %2
  %5 = load ptr, ptr @g_assert_poison, align 8
  store i8 88, ptr %5, align 1
  tail call void @_Z28report_should_not_reach_herePKci(ptr noundef nonnull @.str.5, i32 noundef 370) #9
  unreachable

switch.lookup:                                    ; preds = %2
  %6 = zext nneg i32 %1 to i64
  %switch.gep = getelementptr inbounds [5 x ptr], ptr @switch.table._ZNK17ShenandoahDegenGC19degen_event_messageEN12ShenandoahGC20ShenandoahDegenPointE, i64 0, i64 %6
  %switch.load = load ptr, ptr %switch.gep, align 8
  ret ptr %switch.load
}